target datalayout = "e-m:e-p270:32:32-p271:32:32-p272:64:64-i64:64-i128:128-f80:128-n8:16:32:64-S128"
target triple = "x86_64-pc-linux-gnu"

%struct.Bigint = type { ptr, i32, i32, i32, i32, [1 x i32] }
%union.U = type { double }

; Function Attrs: nounwind uwtable
define internal i32 @hi0bits(ptr noundef %0, i32 noundef %1) #0 {
  %3 = alloca i32, align 4
  %4 = alloca ptr, align 8
  %5 = alloca i32, align 4
  %6 = alloca i32, align 4
  %7 = alloca i32, align 4
  store ptr %0, ptr %4, align 8, !tbaa !4
  store i32 %1, ptr %5, align 4, !tbaa !9
  call void @llvm.lifetime.start.p0(i64 4, ptr %6) #6
  store i32 0, ptr %6, align 4, !tbaa !9
  %8 = load i32, ptr %5, align 4, !tbaa !9
  %9 = and i32 %8, -65536
  %10 = icmp ne i32 %9, 0
  br i1 %10, label %14, label %11

11:                                               ; preds = %2
  store i32 16, ptr %6, align 4, !tbaa !9
  %12 = load i32, ptr %5, align 4, !tbaa !9
  %13 = shl i32 %12, 16
  store i32 %13, ptr %5, align 4, !tbaa !9
  br label %14

14:                                               ; preds = %11, %2
  %15 = load i32, ptr %5, align 4, !tbaa !9
  %16 = and i32 %15, -16777216
  %17 = icmp ne i32 %16, 0
  br i1 %17, label %23, label %18

18:                                               ; preds = %14
  %19 = load i32, ptr %6, align 4, !tbaa !9
  %20 = add nsw i32 %19, 8
  store i32 %20, ptr %6, align 4, !tbaa !9
  %21 = load i32, ptr %5, align 4, !tbaa !9
  %22 = shl i32 %21, 8
  store i32 %22, ptr %5, align 4, !tbaa !9
  br label %23

23:                                               ; preds = %18, %14
  %24 = load i32, ptr %5, align 4, !tbaa !9
  %25 = and i32 %24, -268435456
  %26 = icmp ne i32 %25, 0
  br i1 %26, label %32, label %27

27:                                               ; preds = %23
  %28 = load i32, ptr %6, align 4, !tbaa !9
  %29 = add nsw i32 %28, 4
  store i32 %29, ptr %6, align 4, !tbaa !9
  %30 = load i32, ptr %5, align 4, !tbaa !9
  %31 = shl i32 %30, 4
  store i32 %31, ptr %5, align 4, !tbaa !9
  br label %32

32:                                               ; preds = %27, %23
  %33 = load i32, ptr %5, align 4, !tbaa !9
  %34 = and i32 %33, -1073741824
  %35 = icmp ne i32 %34, 0
  br i1 %35, label %41, label %36

36:                                               ; preds = %32
  %37 = load i32, ptr %6, align 4, !tbaa !9
  %38 = add nsw i32 %37, 2
  store i32 %38, ptr %6, align 4, !tbaa !9
  %39 = load i32, ptr %5, align 4, !tbaa !9
  %40 = shl i32 %39, 2
  store i32 %40, ptr %5, align 4, !tbaa !9
  br label %41

41:                                               ; preds = %36, %32
  %42 = load i32, ptr %5, align 4, !tbaa !9
  %43 = and i32 %42, -2147483648
  %44 = icmp ne i32 %43, 0
  br i1 %44, label %53, label %45

45:                                               ; preds = %41
  %46 = load i32, ptr %6, align 4, !tbaa !9
  %47 = add nsw i32 %46, 1
  store i32 %47, ptr %6, align 4, !tbaa !9
  %48 = load i32, ptr %5, align 4, !tbaa !9
  %49 = and i32 %48, 1073741824
  %50 = icmp ne i32 %49, 0
  br i1 %50, label %52, label %51

51:                                               ; preds = %45
  store i32 32, ptr %3, align 4
  store i32 1, ptr %7, align 4
  br label %55

52:                                               ; preds = %45
  br label %53

53:                                               ; preds = %52, %41
  %54 = load i32, ptr %6, align 4, !tbaa !9
  store i32 %54, ptr %3, align 4
  store i32 1, ptr %7, align 4
  br label %55

55:                                               ; preds = %53, %51
  call void @llvm.lifetime.end.p0(i64 4, ptr %6) #6
  %56 = load i32, ptr %3, align 4
  ret i32 %56
}

; Function Attrs: nounwind uwtable
define internal double @b2d(ptr noundef %0, ptr noundef %1, ptr noundef %2) #0 {
  %4 = alloca ptr, align 8
  %5 = alloca ptr, align 8
  %6 = alloca ptr, align 8
  %7 = alloca ptr, align 8
  %8 = alloca ptr, align 8
  %9 = alloca i32, align 4
  %10 = alloca i32, align 4
  %11 = alloca i32, align 4
  %12 = alloca i32, align 4
  %13 = alloca %union.U, align 8
  store ptr %0, ptr %4, align 8, !tbaa !4
  store ptr %1, ptr %5, align 8, !tbaa !11
  store ptr %2, ptr %6, align 8, !tbaa !60
  call void @llvm.lifetime.start.p0(i64 8, ptr %7) #6
  call void @llvm.lifetime.start.p0(i64 8, ptr %8) #6
  call void @llvm.lifetime.start.p0(i64 4, ptr %9) #6
  call void @llvm.lifetime.start.p0(i64 4, ptr %10) #6
  call void @llvm.lifetime.start.p0(i64 4, ptr %11) #6
  call void @llvm.lifetime.start.p0(i64 4, ptr %12) #6
  call void @llvm.lifetime.start.p0(i64 8, ptr %13) #6
  %14 = load ptr, ptr %5, align 8, !tbaa !11
  %15 = getelementptr inbounds nuw %struct.Bigint, ptr %14, i32 0, i32 5
  %16 = getelementptr inbounds [1 x i32], ptr %15, i64 0, i64 0
  store ptr %16, ptr %8, align 8, !tbaa !60
  %17 = load ptr, ptr %8, align 8, !tbaa !60
  %18 = load ptr, ptr %5, align 8, !tbaa !11
  %19 = getelementptr inbounds nuw %struct.Bigint, ptr %18, i32 0, i32 4
  %20 = load i32, ptr %19, align 4, !tbaa !51
  %21 = sext i32 %20 to i64
  %22 = getelementptr inbounds i32, ptr %17, i64 %21
  store ptr %22, ptr %7, align 8, !tbaa !60
  %23 = load ptr, ptr %7, align 8, !tbaa !60
  %24 = getelementptr inbounds i32, ptr %23, i32 -1
  store ptr %24, ptr %7, align 8, !tbaa !60
  %25 = load i32, ptr %24, align 4, !tbaa !9
  store i32 %25, ptr %10, align 4, !tbaa !9
  %26 = load ptr, ptr %4, align 8, !tbaa !4
  %27 = load i32, ptr %10, align 4, !tbaa !9
  %28 = call i32 @hi0bits(ptr noundef %26, i32 noundef %27)
  store i32 %28, ptr %12, align 4, !tbaa !9
  %29 = load i32, ptr %12, align 4, !tbaa !9
  %30 = sub nsw i32 32, %29
  %31 = load ptr, ptr %6, align 8, !tbaa !60
  store i32 %30, ptr %31, align 4, !tbaa !9
  %32 = load i32, ptr %12, align 4, !tbaa !9
  %33 = icmp slt i32 %32, 11
  br i1 %33, label %34, label %61

34:                                               ; preds = %3
  %35 = load i32, ptr %10, align 4, !tbaa !9
  %36 = load i32, ptr %12, align 4, !tbaa !9
  %37 = sub nsw i32 11, %36
  %38 = lshr i32 %35, %37
  %39 = or i32 1072693248, %38
  %40 = getelementptr inbounds [2 x i32], ptr %13, i64 0, i64 1
  store i32 %39, ptr %40, align 4, !tbaa !30
  %41 = load ptr, ptr %7, align 8, !tbaa !60
  %42 = load ptr, ptr %8, align 8, !tbaa !60
  %43 = icmp ugt ptr %41, %42
  br i1 %43, label %44, label %48

44:                                               ; preds = %34
  %45 = load ptr, ptr %7, align 8, !tbaa !60
  %46 = getelementptr inbounds i32, ptr %45, i32 -1
  store ptr %46, ptr %7, align 8, !tbaa !60
  %47 = load i32, ptr %46, align 4, !tbaa !9
  br label %49

48:                                               ; preds = %34
  br label %49

49:                                               ; preds = %48, %44
  %50 = phi i32 [ %47, %44 ], [ 0, %48 ]
  store i32 %50, ptr %9, align 4, !tbaa !9
  %51 = load i32, ptr %10, align 4, !tbaa !9
  %52 = load i32, ptr %12, align 4, !tbaa !9
  %53 = add nsw i32 21, %52
  %54 = shl i32 %51, %53
  %55 = load i32, ptr %9, align 4, !tbaa !9
  %56 = load i32, ptr %12, align 4, !tbaa !9
  %57 = sub nsw i32 11, %56
  %58 = lshr i32 %55, %57
  %59 = or i32 %54, %58
  %60 = getelementptr inbounds [2 x i32], ptr %13, i64 0, i64 0
  store i32 %59, ptr %60, align 8, !tbaa !30
  br label %112

61:                                               ; preds = %3
  %62 = load ptr, ptr %7, align 8, !tbaa !60
  %63 = load ptr, ptr %8, align 8, !tbaa !60
  %64 = icmp ugt ptr %62, %63
  br i1 %64, label %65, label %69

65:                                               ; preds = %61
  %66 = load ptr, ptr %7, align 8, !tbaa !60
  %67 = getelementptr inbounds i32, ptr %66, i32 -1
  store ptr %67, ptr %7, align 8, !tbaa !60
  %68 = load i32, ptr %67, align 4, !tbaa !9
  br label %70

69:                                               ; preds = %61
  br label %70

70:                                               ; preds = %69, %65
  %71 = phi i32 [ %68, %65 ], [ 0, %69 ]
  store i32 %71, ptr %11, align 4, !tbaa !9
  %72 = load i32, ptr %12, align 4, !tbaa !9
  %73 = sub nsw i32 %72, 11
  store i32 %73, ptr %12, align 4, !tbaa !9
  %74 = icmp ne i32 %73, 0
  br i1 %74, label %75, label %105

75:                                               ; preds = %70
  %76 = load i32, ptr %10, align 4, !tbaa !9
  %77 = load i32, ptr %12, align 4, !tbaa !9
  %78 = shl i32 %76, %77
  %79 = or i32 1072693248, %78
  %80 = load i32, ptr %11, align 4, !tbaa !9
  %81 = load i32, ptr %12, align 4, !tbaa !9
  %82 = sub nsw i32 32, %81
  %83 = lshr i32 %80, %82
  %84 = or i32 %79, %83
  %85 = getelementptr inbounds [2 x i32], ptr %13, i64 0, i64 1
  store i32 %84, ptr %85, align 4, !tbaa !30
  %86 = load ptr, ptr %7, align 8, !tbaa !60
  %87 = load ptr, ptr %8, align 8, !tbaa !60
  %88 = icmp ugt ptr %86, %87
  br i1 %88, label %89, label %93

89:                                               ; preds = %75
  %90 = load ptr, ptr %7, align 8, !tbaa !60
  %91 = getelementptr inbounds i32, ptr %90, i32 -1
  store ptr %91, ptr %7, align 8, !tbaa !60
  %92 = load i32, ptr %91, align 4, !tbaa !9
  br label %94

93:                                               ; preds = %75
  br label %94

94:                                               ; preds = %93, %89
  %95 = phi i32 [ %92, %89 ], [ 0, %93 ]
  store i32 %95, ptr %10, align 4, !tbaa !9
  %96 = load i32, ptr %11, align 4, !tbaa !9
  %97 = load i32, ptr %12, align 4, !tbaa !9
  %98 = shl i32 %96, %97
  %99 = load i32, ptr %10, align 4, !tbaa !9
  %100 = load i32, ptr %12, align 4, !tbaa !9
  %101 = sub nsw i32 32, %100
  %102 = lshr i32 %99, %101
  %103 = or i32 %98, %102
  %104 = getelementptr inbounds [2 x i32], ptr %13, i64 0, i64 0
  store i32 %103, ptr %104, align 8, !tbaa !30
  br label %111

105:                                              ; preds = %70
  %106 = load i32, ptr %10, align 4, !tbaa !9
  %107 = or i32 1072693248, %106
  %108 = getelementptr inbounds [2 x i32], ptr %13, i64 0, i64 1
  store i32 %107, ptr %108, align 4, !tbaa !30
  %109 = load i32, ptr %11, align 4, !tbaa !9
  %110 = getelementptr inbounds [2 x i32], ptr %13, i64 0, i64 0
  store i32 %109, ptr %110, align 8, !tbaa !30
  br label %111

111:                                              ; preds = %105, %94
  br label %112

112:                                              ; preds = %111, %49
  %113 = load double, ptr %13, align 8, !tbaa !30
  call void @llvm.lifetime.end.p0(i64 8, ptr %13) #6
  call void @llvm.lifetime.end.p0(i64 4, ptr %12) #6
  call void @llvm.lifetime.end.p0(i64 4, ptr %11) #6
  call void @llvm.lifetime.end.p0(i64 4, ptr %10) #6
  call void @llvm.lifetime.end.p0(i64 4, ptr %9) #6
  call void @llvm.lifetime.end.p0(i64 8, ptr %8) #6
  call void @llvm.lifetime.end.p0(i64 8, ptr %7) #6
  ret double %113
}